target datalayout = "e-m:e-p270:32:32-p271:32:32-p272:64:64-i64:64-i128:128-f80:128-n8:16:32:64-S128"
target triple = "x86_64-pc-linux-gnu"

%struct.expert_field = type { i32, i32 }
%struct.MessageHeader = type { [4 x i8], %struct.Version, i8, i8, i32, i32, i32, ptr }
%struct.Version = type { i8, i8 }

@hf_GIAS_UpdateMgr_update_by_query_properties_loop = internal global i32 0, align 4
@hf_GIAS_Query_view = internal global i32 0, align 4
@hf_GIAS_Query_bqs_query = internal global i32 0, align 4
@hf_UCO_NameValue_aname = internal global i32 0, align 4
@ei_gias_unknown_giop_msg = internal global %struct.expert_field zeroinitializer, align 4
@ei_gias_unknown_exception = internal global %struct.expert_field zeroinitializer, align 4
@ett_giop_struct = internal global i32 0, align 4
@ett_giop_sequence = internal global i32 0, align 4
@boundary = internal global i32 12, align 4
@.str.826 = private unnamed_addr constant [21 x i8] c"Unknown exception %d\00", align 1
@.str.827 = private unnamed_addr constant [24 x i8] c"Unknown GIOP message %d\00", align 1
@.str.855 = private unnamed_addr constant [21 x i8] c"struct UCO_NameValue\00", align 1
@.str.856 = private unnamed_addr constant [18 x i8] c"struct GIAS_Query\00", align 1
@.str.879 = private unnamed_addr constant [51 x i8] c"sequence GIAS_UpdateMgr_update_by_query_properties\00", align 1

; Function Attrs: null_pointer_is_valid sspstrong uwtable
define internal void @decode_GIAS_Query_st(ptr noundef %0, ptr noundef %1, ptr noundef %2, ptr noundef %3, ptr noundef %4, ptr noundef %5, ptr noundef %6, i1 noundef zeroext %7) #0 {
  %9 = alloca ptr, align 8
  %10 = alloca ptr, align 8
  %11 = alloca ptr, align 8
  %12 = alloca ptr, align 8
  %13 = alloca ptr, align 8
  %14 = alloca ptr, align 8
  %15 = alloca ptr, align 8
  %16 = alloca i8, align 1
  store ptr %0, ptr %9, align 8
  store ptr %1, ptr %10, align 8
  store ptr %2, ptr %11, align 8
  store ptr %3, ptr %12, align 8
  store ptr %4, ptr %13, align 8
  store ptr %5, ptr %14, align 8
  store ptr %6, ptr %15, align 8
  %17 = zext i1 %7 to i8
  store i8 %17, ptr %16, align 1
  %18 = load ptr, ptr %11, align 8
  %19 = load ptr, ptr %9, align 8
  %20 = load ptr, ptr %13, align 8
  %21 = load i8, ptr %16, align 1, !range !6, !noundef !7
  %22 = trunc i8 %21 to i1
  %23 = load i32, ptr @boundary, align 4
  %24 = load i32, ptr @hf_GIAS_Query_view, align 4
  call void @giop_add_CDR_string(ptr noundef %18, ptr noundef %19, ptr noundef %20, i1 noundef zeroext %22, i32 noundef %23, i32 noundef %24)
  %25 = load ptr, ptr %11, align 8
  %26 = load ptr, ptr %9, align 8
  %27 = load ptr, ptr %13, align 8
  %28 = load i8, ptr %16, align 1, !range !6, !noundef !7
  %29 = trunc i8 %28 to i1
  %30 = load i32, ptr @boundary, align 4
  %31 = load i32, ptr @hf_GIAS_Query_bqs_query, align 4
  call void @giop_add_CDR_string(ptr noundef %25, ptr noundef %26, ptr noundef %27, i1 noundef zeroext %29, i32 noundef %30, i32 noundef %31)
  ret void
}

; Function Attrs: null_pointer_is_valid sspstrong uwtable
define internal void @decode_UCO_NameValue_st(ptr noundef %0, ptr noundef %1, ptr noundef %2, ptr noundef %3, ptr noundef %4, ptr noundef %5, ptr noundef %6, i1 noundef zeroext %7) #0 {
  %9 = alloca ptr, align 8
  %10 = alloca ptr, align 8
  %11 = alloca ptr, align 8
  %12 = alloca ptr, align 8
  %13 = alloca ptr, align 8
  %14 = alloca ptr, align 8
  %15 = alloca ptr, align 8
  %16 = alloca i8, align 1
  store ptr %0, ptr %9, align 8
  store ptr %1, ptr %10, align 8
  store ptr %2, ptr %11, align 8
  store ptr %3, ptr %12, align 8
  store ptr %4, ptr %13, align 8
  store ptr %5, ptr %14, align 8
  store ptr %6, ptr %15, align 8
  %17 = zext i1 %7 to i8
  store i8 %17, ptr %16, align 1
  %18 = load ptr, ptr %11, align 8
  %19 = load ptr, ptr %9, align 8
  %20 = load ptr, ptr %13, align 8
  %21 = load i8, ptr %16, align 1, !range !6, !noundef !7
  %22 = trunc i8 %21 to i1
  %23 = load i32, ptr @boundary, align 4
  %24 = load i32, ptr @hf_UCO_NameValue_aname, align 4
  call void @giop_add_CDR_string(ptr noundef %18, ptr noundef %19, ptr noundef %20, i1 noundef zeroext %22, i32 noundef %23, i32 noundef %24)
  %25 = load ptr, ptr %9, align 8
  %26 = load ptr, ptr %10, align 8
  %27 = load ptr, ptr %11, align 8
  %28 = load ptr, ptr %12, align 8
  %29 = load ptr, ptr %13, align 8
  %30 = load i8, ptr %16, align 1, !range !6, !noundef !7
  %31 = trunc i8 %30 to i1
  %32 = load i32, ptr @boundary, align 4
  %33 = load ptr, ptr %14, align 8
  call void @get_CDR_any(ptr noundef %25, ptr noundef %26, ptr noundef %27, ptr noundef %28, ptr noundef %29, i1 noundef zeroext %31, i32 noundef %32, ptr noundef %33)
  ret void
}

; Function Attrs: null_pointer_is_valid sspstrong uwtable
define internal void @decode_GIAS_UpdateMgr_update_by_query(ptr noundef %0, ptr noundef %1, ptr noundef %2, ptr noundef %3, ptr noundef %4, ptr noundef %5, ptr noundef %6, i1 noundef zeroext %7) #0 {
  %9 = alloca ptr, align 8
  %10 = alloca ptr, align 8
  %11 = alloca ptr, align 8
  %12 = alloca ptr, align 8
  %13 = alloca ptr, align 8
  %14 = alloca ptr, align 8
  %15 = alloca ptr, align 8
  %16 = alloca i8, align 1
  %17 = alloca i32, align 4
  %18 = alloca i32, align 4
  %19 = alloca ptr, align 8
  %20 = alloca ptr, align 8
  %21 = alloca ptr, align 8
  %22 = alloca ptr, align 8
  store ptr %0, ptr %9, align 8
  store ptr %1, ptr %10, align 8
  store ptr %2, ptr %11, align 8
  store ptr %3, ptr %12, align 8
  store ptr %4, ptr %13, align 8
  store ptr %5, ptr %14, align 8
  store ptr %6, ptr %15, align 8
  %23 = zext i1 %7 to i8
  store i8 %23, ptr %16, align 1
  call void @llvm.lifetime.start.p0(i64 4, ptr %17) #6
  call void @llvm.lifetime.start.p0(i64 4, ptr %18) #6
  %24 = load ptr, ptr %14, align 8
  %25 = getelementptr inbounds nuw %struct.MessageHeader, ptr %24, i32 0, i32 3
  %26 = load i8, ptr %25, align 1
  %27 = zext i8 %26 to i32
  switch i32 %27, label %125 [
    i32 0, label %28
    i32 1, label %105
  ]

28:                                               ; preds = %8
  call void @llvm.lifetime.start.p0(i64 8, ptr %19) #6
  %29 = load ptr, ptr %11, align 8
  %30 = load ptr, ptr %9, align 8
  %31 = load ptr, ptr %13, align 8
  %32 = load i32, ptr %31, align 4
  %33 = load i32, ptr @ett_giop_struct, align 4
  %34 = call ptr @proto_tree_add_subtree(ptr noundef %29, ptr noundef %30, i32 noundef %32, i32 noundef -1, i32 noundef %33, ptr noundef null, ptr noundef @.str.855)
  store ptr %34, ptr %19, align 8
  %35 = load ptr, ptr %9, align 8
  %36 = load ptr, ptr %10, align 8
  %37 = load ptr, ptr %19, align 8
  %38 = load ptr, ptr %12, align 8
  %39 = load ptr, ptr %13, align 8
  %40 = load ptr, ptr %14, align 8
  %41 = load ptr, ptr %15, align 8
  %42 = load i8, ptr %16, align 1, !range !6, !noundef !7
  %43 = trunc i8 %42 to i1
  call void @decode_UCO_NameValue_st(ptr noundef %35, ptr noundef %36, ptr noundef %37, ptr noundef %38, ptr noundef %39, ptr noundef %40, ptr noundef %41, i1 noundef zeroext %43)
  call void @llvm.lifetime.end.p0(i64 8, ptr %19) #6
  call void @llvm.lifetime.start.p0(i64 8, ptr %20) #6
  %44 = load ptr, ptr %11, align 8
  %45 = load ptr, ptr %9, align 8
  %46 = load ptr, ptr %13, align 8
  %47 = load i32, ptr %46, align 4
  %48 = load i32, ptr @ett_giop_struct, align 4
  %49 = call ptr @proto_tree_add_subtree(ptr noundef %44, ptr noundef %45, i32 noundef %47, i32 noundef -1, i32 noundef %48, ptr noundef null, ptr noundef @.str.856)
  store ptr %49, ptr %20, align 8
  %50 = load ptr, ptr %9, align 8
  %51 = load ptr, ptr %10, align 8
  %52 = load ptr, ptr %20, align 8
  %53 = load ptr, ptr %12, align 8
  %54 = load ptr, ptr %13, align 8
  %55 = load ptr, ptr %14, align 8
  %56 = load ptr, ptr %15, align 8
  %57 = load i8, ptr %16, align 1, !range !6, !noundef !7
  %58 = trunc i8 %57 to i1
  call void @decode_GIAS_Query_st(ptr noundef %50, ptr noundef %51, ptr noundef %52, ptr noundef %53, ptr noundef %54, ptr noundef %55, ptr noundef %56, i1 noundef zeroext %58)
  call void @llvm.lifetime.end.p0(i64 8, ptr %20) #6
  %59 = load ptr, ptr %9, align 8
  %60 = load ptr, ptr %13, align 8
  %61 = load i8, ptr %16, align 1, !range !6, !noundef !7
  %62 = trunc i8 %61 to i1
  %63 = load i32, ptr @boundary, align 4
  %64 = call i32 @get_CDR_ulong(ptr noundef %59, ptr noundef %60, i1 noundef zeroext %62, i32 noundef %63)
  store i32 %64, ptr %17, align 4
  %65 = load ptr, ptr %11, align 8
  %66 = load i32, ptr @hf_GIAS_UpdateMgr_update_by_query_properties_loop, align 4
  %67 = load ptr, ptr %9, align 8
  %68 = load ptr, ptr %13, align 8
  %69 = load i32, ptr %68, align 4
  %70 = sub i32 %69, 4
  %71 = load i32, ptr %17, align 4
  %72 = call ptr @proto_tree_add_uint(ptr noundef %65, i32 noundef %66, ptr noundef %67, i32 noundef %70, i32 noundef 4, i32 noundef %71)
  call void @llvm.lifetime.start.p0(i64 8, ptr %21) #6
  %73 = load ptr, ptr %11, align 8
  store ptr %73, ptr %21, align 8
  %74 = load ptr, ptr %11, align 8
  %75 = load ptr, ptr %9, align 8
  %76 = load ptr, ptr %13, align 8
  %77 = load i32, ptr %76, align 4
  %78 = load i32, ptr @ett_giop_sequence, align 4
  %79 = call ptr @proto_tree_add_subtree(ptr noundef %74, ptr noundef %75, i32 noundef %77, i32 noundef -1, i32 noundef %78, ptr noundef null, ptr noundef @.str.879)
  store ptr %79, ptr %11, align 8
  store i32 0, ptr %18, align 4
  br label %80

80:                                               ; preds = %100, %28
  %81 = load i32, ptr %18, align 4
  %82 = load i32, ptr %17, align 4
  %83 = icmp ult i32 %81, %82
  br i1 %83, label %84, label %103

84:                                               ; preds = %80
  call void @llvm.lifetime.start.p0(i64 8, ptr %22) #6
  %85 = load ptr, ptr %11, align 8
  %86 = load ptr, ptr %9, align 8
  %87 = load ptr, ptr %13, align 8
  %88 = load i32, ptr %87, align 4
  %89 = load i32, ptr @ett_giop_struct, align 4
  %90 = call ptr @proto_tree_add_subtree(ptr noundef %85, ptr noundef %86, i32 noundef %88, i32 noundef -1, i32 noundef %89, ptr noundef null, ptr noundef @.str.855)
  store ptr %90, ptr %22, align 8
  %91 = load ptr, ptr %9, align 8
  %92 = load ptr, ptr %10, align 8
  %93 = load ptr, ptr %22, align 8
  %94 = load ptr, ptr %12, align 8
  %95 = load ptr, ptr %13, align 8
  %96 = load ptr, ptr %14, align 8
  %97 = load ptr, ptr %15, align 8
  %98 = load i8, ptr %16, align 1, !range !6, !noundef !7
  %99 = trunc i8 %98 to i1
  call void @decode_UCO_NameValue_st(ptr noundef %91, ptr noundef %92, ptr noundef %93, ptr noundef %94, ptr noundef %95, ptr noundef %96, ptr noundef %97, i1 noundef zeroext %99)
  call void @llvm.lifetime.end.p0(i64 8, ptr %22) #6
  br label %100

100:                                              ; preds = %84
  %101 = load i32, ptr %18, align 4
  %102 = add i32 %101, 1
  store i32 %102, ptr %18, align 4
  br label %80, !llvm.loop !31

103:                                              ; preds = %80
  %104 = load ptr, ptr %21, align 8
  store ptr %104, ptr %11, align 8
  call void @llvm.lifetime.end.p0(i64 8, ptr %21) #6
  br label %133

105:                                              ; preds = %8
  %106 = load ptr, ptr %14, align 8
  %107 = getelementptr inbounds nuw %struct.MessageHeader, ptr %106, i32 0, i32 6
  %108 = load i32, ptr %107, align 8
  switch i32 %108, label %117 [
    i32 0, label %109
    i32 1, label %124
  ]

109:                                              ; preds = %105
  %110 = load ptr, ptr %9, align 8
  %111 = load ptr, ptr %10, align 8
  %112 = load ptr, ptr %11, align 8
  %113 = load ptr, ptr %13, align 8
  %114 = load i8, ptr %16, align 1, !range !6, !noundef !7
  %115 = trunc i8 %114 to i1
  %116 = load i32, ptr @boundary, align 4
  call void @get_CDR_object(ptr noundef %110, ptr noundef %111, ptr noundef %112, ptr noundef %113, i1 noundef zeroext %115, i32 noundef %116)
  br label %124

117:                                              ; preds = %105
  %118 = load ptr, ptr %10, align 8
  %119 = load ptr, ptr %12, align 8
  %120 = load ptr, ptr %14, align 8
  %121 = getelementptr inbounds nuw %struct.MessageHeader, ptr %120, i32 0, i32 6
  %122 = load i32, ptr %121, align 8
  %123 = call ptr (ptr, ptr, ptr, ptr, ...) @expert_add_info_format(ptr noundef %118, ptr noundef %119, ptr noundef @ei_gias_unknown_exception, ptr noundef @.str.826, i32 noundef %122)
  br label %124

124:                                              ; preds = %117, %105, %109
  br label %133

125:                                              ; preds = %8
  %126 = load ptr, ptr %10, align 8
  %127 = load ptr, ptr %12, align 8
  %128 = load ptr, ptr %14, align 8
  %129 = getelementptr inbounds nuw %struct.MessageHeader, ptr %128, i32 0, i32 3
  %130 = load i8, ptr %129, align 1
  %131 = zext i8 %130 to i32
  %132 = call ptr (ptr, ptr, ptr, ptr, ...) @expert_add_info_format(ptr noundef %126, ptr noundef %127, ptr noundef @ei_gias_unknown_giop_msg, ptr noundef @.str.827, i32 noundef %131)
  br label %133

133:                                              ; preds = %125, %124, %103
  call void @llvm.lifetime.end.p0(i64 4, ptr %18) #6
  call void @llvm.lifetime.end.p0(i64 4, ptr %17) #6
  ret void
}