; Function Attrs: null_pointer_is_valid sspstrong uwtable
define internal fastcc void @decode_GIAS_UpdateMgr_update_by_query(ptr noundef %0, ptr noundef %1, ptr noundef %2, ptr noundef %3, ptr noundef %4, ptr noundef %5, i1 noundef zeroext %6) unnamed_addr #0 {
  %8 = getelementptr inbounds nuw i8, ptr %5, i64 7
  %9 = load i8, ptr %8, align 1
  switch i8 %9, label %39 [
    i8 0, label %10
    i8 1, label %33
  ]

10:                                               ; preds = %7
  %11 = load i32, ptr %4, align 4
  %12 = load i32, ptr @ett_giop_struct, align 4
  %13 = tail call ptr @proto_tree_add_subtree(ptr noundef %2, ptr noundef %0, i32 noundef %11, i32 noundef -1, i32 noundef %12, ptr noundef null, ptr noundef nonnull @.str.855)
  %14 = load i32, ptr @hf_UCO_NameValue_aname, align 4
  tail call void @giop_add_CDR_string(ptr noundef %13, ptr noundef %0, ptr noundef %4, i1 noundef zeroext %6, i32 noundef 12, i32 noundef %14)
  tail call void @get_CDR_any(ptr noundef %0, ptr noundef %1, ptr noundef %13, ptr noundef %3, ptr noundef %4, i1 noundef zeroext %6, i32 noundef 12, ptr noundef %5)
  %15 = load i32, ptr %4, align 4
  %16 = load i32, ptr @ett_giop_struct, align 4
  %17 = tail call ptr @proto_tree_add_subtree(ptr noundef %2, ptr noundef %0, i32 noundef %15, i32 noundef -1, i32 noundef %16, ptr noundef null, ptr noundef nonnull @.str.856)
  %18 = load i32, ptr @hf_GIAS_Query_view, align 4
  tail call void @giop_add_CDR_string(ptr noundef %17, ptr noundef %0, ptr noundef %4, i1 noundef zeroext %6, i32 noundef 12, i32 noundef %18)
  %19 = load i32, ptr @hf_GIAS_Query_bqs_query, align 4
  tail call void @giop_add_CDR_string(ptr noundef %17, ptr noundef %0, ptr noundef %4, i1 noundef zeroext %6, i32 noundef 12, i32 noundef %19)
  %20 = tail call i32 @get_CDR_ulong(ptr noundef %0, ptr noundef %4, i1 noundef zeroext %6, i32 noundef 12)
  %21 = load i32, ptr @hf_GIAS_UpdateMgr_update_by_query_properties_loop, align 4
  %22 = load i32, ptr %4, align 4
  %23 = add i32 %22, -4
  %24 = tail call ptr @proto_tree_add_uint(ptr noundef %2, i32 noundef %21, ptr noundef %0, i32 noundef %23, i32 noundef 4, i32 noundef %20)
  %25 = load i32, ptr %4, align 4
  %26 = load i32, ptr @ett_giop_sequence, align 4
  %27 = tail call ptr @proto_tree_add_subtree(ptr noundef %2, ptr noundef %0, i32 noundef %25, i32 noundef -1, i32 noundef %26, ptr noundef null, ptr noundef nonnull @.str.879)
  %.not = icmp eq i32 %20, 0
  br i1 %.not, label %.loopexit, label %.lr.ph

.lr.ph:                                           ; preds = %10, %.lr.ph
  %.01 = phi i32 [ %32, %.lr.ph ], [ 0, %10 ]
  %28 = load i32, ptr %4, align 4
  %29 = load i32, ptr @ett_giop_struct, align 4
  %30 = tail call ptr @proto_tree_add_subtree(ptr noundef %27, ptr noundef %0, i32 noundef %28, i32 noundef -1, i32 noundef %29, ptr noundef null, ptr noundef nonnull @.str.855)
  %31 = load i32, ptr @hf_UCO_NameValue_aname, align 4
  tail call void @giop_add_CDR_string(ptr noundef %30, ptr noundef %0, ptr noundef %4, i1 noundef zeroext %6, i32 noundef 12, i32 noundef %31)
  tail call void @get_CDR_any(ptr noundef %0, ptr noundef %1, ptr noundef %30, ptr noundef %3, ptr noundef %4, i1 noundef zeroext %6, i32 noundef 12, ptr noundef %5)
  %32 = add nuw i32 %.01, 1
  %exitcond.not = icmp eq i32 %32, %20
  br i1 %exitcond.not, label %.loopexit, label %.lr.ph, !llvm.loop !30

33:                                               ; preds = %7
  %34 = getelementptr inbounds nuw i8, ptr %5, i64 16
  %35 = load i32, ptr %34, align 8
  switch i32 %35, label %37 [
    i32 0, label %36
    i32 1, label %.loopexit
  ]

36:                                               ; preds = %33
  tail call void @get_CDR_object(ptr noundef %0, ptr noundef %1, ptr noundef %2, ptr noundef %4, i1 noundef zeroext %6, i32 noundef 12)
  br label %.loopexit

37:                                               ; preds = %33
  %38 = tail call ptr (ptr, ptr, ptr, ptr, ...) @expert_add_info_format(ptr noundef %1, ptr noundef %3, ptr noundef nonnull @ei_gias_unknown_exception, ptr noundef nonnull @.str.826, i32 noundef %35)
  br label %.loopexit

39:                                               ; preds = %7
  %40 = zext i8 %9 to i32
  %41 = tail call ptr (ptr, ptr, ptr, ptr, ...) @expert_add_info_format(ptr noundef %1, ptr noundef %3, ptr noundef nonnull @ei_gias_unknown_giop_msg, ptr noundef nonnull @.str.827, i32 noundef %40)
  br label %.loopexit

.loopexit:                                        ; preds = %.lr.ph, %10, %33, %36, %37, %39
  ret void
}